(dp0
S'dt'
p1
ccopy_reg
_reconstructor
p2
(camuse.units.quantities
ScalarQuantity
p3
c__builtin__
object
p4
Ntp5
Rp6
(camuse.units.core
get_base_unit_with_name
p7
(camuse.units.core
get_system_with_name
p8
(S'S.I.'
p9
tp10
Rp11
S'time'
p12
tp13
Rp14
cnumpy.core.multiarray
scalar
p15
(cnumpy
dtype
p16
(S'f8'
p17
I0
I1
tp18
Rp19
(I3
S'<'
p20
NNNI-1
I-1
I0
tp21
bS"\x85e'\xea\xdd/?B"
p22
tp23
Rp24
tp25
bsS'it'
p26
I11
s.